target datalayout = "e-m:e-p270:32:32-p271:32:32-p272:64:64-i64:64-i128:128-f80:128-n8:16:32:64-S128"
target triple = "x86_64-pc-linux-gnu"

%struct._object = type { %union.anon, ptr }
%union.anon = type { i64 }
%struct.anon = type { i32, i32 }

@.str = private unnamed_addr constant [14 x i8] c"sys_getobject\00", align 1
@.str.1 = private unnamed_addr constant [14 x i8] c"sys_setobject\00", align 1
@.str.2 = private unnamed_addr constant [16 x i8] c"sys_getxoptions\00", align 1
@test_methods = internal global [4 x { ptr, ptr, i32, [4 x i8], ptr }] [{ ptr, ptr, i32, [4 x i8], ptr } { ptr @.str, ptr @sys_getobject, i32 8, [4 x i8] zeroinitializer, ptr null }, { ptr, ptr, i32, [4 x i8], ptr } { ptr @.str.1, ptr @sys_setobject, i32 1, [4 x i8] zeroinitializer, ptr null }, { ptr, ptr, i32, [4 x i8], ptr } { ptr @.str.2, ptr @sys_getxoptions, i32 4, [4 x i8] zeroinitializer, ptr null }, { ptr, ptr, i32, [4 x i8], ptr } zeroinitializer], align 16
@.str.4 = private unnamed_addr constant [3 x i8] c"z#\00", align 1
@PyExc_AttributeError = external global ptr, align 8
@.str.5 = private unnamed_addr constant [4 x i8] c"z#O\00", align 1
@_Py_NoneStruct = external global %struct._object, align 8
@.str.6 = private unnamed_addr constant [17 x i8] c"PyErr_Occurred()\00", align 1
@.str.7 = private unnamed_addr constant [42 x i8] c"../cpython/Modules/_testlimitedcapi/sys.c\00", align 1
@__PRETTY_FUNCTION__.sys_setobject = private unnamed_addr constant [48 x i8] c"PyObject *sys_setobject(PyObject *, PyObject *)\00", align 1
@.str.8 = private unnamed_addr constant [18 x i8] c"!PyErr_Occurred()\00", align 1

; Function Attrs: nounwind uwtable
define hidden i32 @_PyTestLimitedCAPI_Init_Sys(ptr noundef %0) #0 {
  %2 = alloca i32, align 4
  %3 = alloca ptr, align 8
  store ptr %0, ptr %3, align 8, !tbaa !3
  %4 = load ptr, ptr %3, align 8, !tbaa !3
  %5 = call i32 @PyModule_AddFunctions(ptr noundef %4, ptr noundef @test_methods)
  %6 = icmp slt i32 %5, 0
  br i1 %6, label %7, label %8

7:                                                ; preds = %1
  store i32 -1, ptr %2, align 4
  br label %9

8:                                                ; preds = %1
  store i32 0, ptr %2, align 4
  br label %9

9:                                                ; preds = %8, %7
  %10 = load i32, ptr %2, align 4
  ret i32 %10
}

declare i32 @PyModule_AddFunctions(ptr noundef, ptr noundef) #1

; Function Attrs: nounwind uwtable
define internal ptr @sys_getobject(ptr noundef %0, ptr noundef %1) #0 {
  %3 = alloca ptr, align 8
  %4 = alloca ptr, align 8
  %5 = alloca ptr, align 8
  %6 = alloca ptr, align 8
  %7 = alloca i64, align 8
  %8 = alloca i32, align 4
  %9 = alloca ptr, align 8
  store ptr %0, ptr %4, align 8, !tbaa !3
  store ptr %1, ptr %5, align 8, !tbaa !3
  call void @llvm.lifetime.start.p0(i64 8, ptr %6) #6
  call void @llvm.lifetime.start.p0(i64 8, ptr %7) #6
  %10 = load ptr, ptr %5, align 8, !tbaa !3
  %11 = call i32 (ptr, ptr, ...) @PyArg_Parse(ptr noundef %10, ptr noundef @.str.4, ptr noundef %6, ptr noundef %7)
  %12 = icmp ne i32 %11, 0
  br i1 %12, label %14, label %13

13:                                               ; preds = %2
  store ptr null, ptr %3, align 8
  store i32 1, ptr %8, align 4
  br label %24

14:                                               ; preds = %2
  call void @llvm.lifetime.start.p0(i64 8, ptr %9) #6
  %15 = load ptr, ptr %6, align 8, !tbaa !8
  %16 = call ptr @PySys_GetObject(ptr noundef %15)
  store ptr %16, ptr %9, align 8, !tbaa !3
  %17 = load ptr, ptr %9, align 8, !tbaa !3
  %18 = icmp eq ptr %17, null
  br i1 %18, label %19, label %21

19:                                               ; preds = %14
  %20 = load ptr, ptr @PyExc_AttributeError, align 8, !tbaa !3
  store ptr %20, ptr %9, align 8, !tbaa !3
  br label %21

21:                                               ; preds = %19, %14
  %22 = load ptr, ptr %9, align 8, !tbaa !3
  %23 = call ptr @_Py_NewRef(ptr noundef %22)
  store ptr %23, ptr %3, align 8
  store i32 1, ptr %8, align 4
  call void @llvm.lifetime.end.p0(i64 8, ptr %9) #6
  br label %24

24:                                               ; preds = %21, %13
  call void @llvm.lifetime.end.p0(i64 8, ptr %7) #6
  call void @llvm.lifetime.end.p0(i64 8, ptr %6) #6
  %25 = load ptr, ptr %3, align 8
  ret ptr %25
}

; Function Attrs: nounwind uwtable
define internal ptr @sys_setobject(ptr noundef %0, ptr noundef %1) #0 {
  %3 = alloca ptr, align 8
  %4 = alloca ptr, align 8
  %5 = alloca ptr, align 8
  %6 = alloca ptr, align 8
  %7 = alloca i64, align 8
  %8 = alloca ptr, align 8
  %9 = alloca i32, align 4
  %10 = alloca i32, align 4
  store ptr %0, ptr %4, align 8, !tbaa !3
  store ptr %1, ptr %5, align 8, !tbaa !3
  call void @llvm.lifetime.start.p0(i64 8, ptr %6) #6
  call void @llvm.lifetime.start.p0(i64 8, ptr %7) #6
  call void @llvm.lifetime.start.p0(i64 8, ptr %8) #6
  %11 = load ptr, ptr %5, align 8, !tbaa !3
  %12 = call i32 (ptr, ptr, ...) @PyArg_ParseTuple(ptr noundef %11, ptr noundef @.str.5, ptr noundef %6, ptr noundef %7, ptr noundef %8)
  %13 = icmp ne i32 %12, 0
  br i1 %13, label %15, label %14

14:                                               ; preds = %2
  store ptr null, ptr %3, align 8
  store i32 1, ptr %9, align 4
  br label %49

15:                                               ; preds = %2
  br label %16

16:                                               ; preds = %15
  %17 = load ptr, ptr %8, align 8, !tbaa !3
  %18 = icmp eq ptr %17, @_Py_NoneStruct
  br i1 %18, label %19, label %20

19:                                               ; preds = %16
  store ptr null, ptr %8, align 8, !tbaa !3
  br label %20

20:                                               ; preds = %19, %16
  br label %21

21:                                               ; preds = %20
  br label %22

22:                                               ; preds = %21
  br label %23

23:                                               ; preds = %22
  call void @llvm.lifetime.start.p0(i64 4, ptr %10) #6
  %24 = load ptr, ptr %6, align 8, !tbaa !8
  %25 = load ptr, ptr %8, align 8, !tbaa !3
  %26 = call i32 @PySys_SetObject(ptr noundef %24, ptr noundef %25)
  store i32 %26, ptr %10, align 4, !tbaa !10
  %27 = load i32, ptr %10, align 4, !tbaa !10
  %28 = icmp eq i32 %27, -1
  br i1 %28, label %29, label %36

29:                                               ; preds = %23
  %30 = call ptr @PyErr_Occurred()
  %31 = icmp ne ptr %30, null
  br i1 %31, label %32, label %33

32:                                               ; preds = %29
  br label %35

33:                                               ; preds = %29
  call void @__assert_fail(ptr noundef @.str.6, ptr noundef @.str.7, i32 noundef 30, ptr noundef @__PRETTY_FUNCTION__.sys_setobject) #7
  unreachable

34:                                               ; No predecessors!
  br label %35

35:                                               ; preds = %34, %32
  store ptr null, ptr %3, align 8
  store i32 1, ptr %9, align 4
  br label %46

36:                                               ; preds = %23
  %37 = call ptr @PyErr_Occurred()
  %38 = icmp ne ptr %37, null
  br i1 %38, label %40, label %39

39:                                               ; preds = %36
  br label %42

40:                                               ; preds = %36
  call void @__assert_fail(ptr noundef @.str.8, ptr noundef @.str.7, i32 noundef 30, ptr noundef @__PRETTY_FUNCTION__.sys_setobject) #7
  unreachable

41:                                               ; No predecessors!
  br label %42

42:                                               ; preds = %41, %39
  %43 = load i32, ptr %10, align 4, !tbaa !10
  %44 = sext i32 %43 to i64
  %45 = call ptr @PyLong_FromLong(i64 noundef %44)
  store ptr %45, ptr %3, align 8
  store i32 1, ptr %9, align 4
  br label %46

46:                                               ; preds = %42, %35
  call void @llvm.lifetime.end.p0(i64 4, ptr %10) #6
  br label %49

47:                                               ; No predecessors!
  br label %48

48:                                               ; preds = %47
  store i32 0, ptr %9, align 4
  br label %49

49:                                               ; preds = %48, %46, %14
  call void @llvm.lifetime.end.p0(i64 8, ptr %8) #6
  call void @llvm.lifetime.end.p0(i64 8, ptr %7) #6
  call void @llvm.lifetime.end.p0(i64 8, ptr %6) #6
  %50 = load i32, ptr %9, align 4
  switch i32 %50, label %53 [
    i32 0, label %51
    i32 1, label %51
  ]

51:                                               ; preds = %49, %49
  %52 = load ptr, ptr %3, align 8
  ret ptr %52

53:                                               ; preds = %49
  unreachable
}

; Function Attrs: nounwind uwtable
define internal ptr @sys_getxoptions(ptr noundef %0, ptr noundef %1) #0 {
  %3 = alloca ptr, align 8
  %4 = alloca ptr, align 8
  %5 = alloca ptr, align 8
  store ptr %0, ptr %3, align 8, !tbaa !3
  store ptr %1, ptr %4, align 8, !tbaa !3
  call void @llvm.lifetime.start.p0(i64 8, ptr %5) #6
  %6 = call ptr @PySys_GetXOptions()
  store ptr %6, ptr %5, align 8, !tbaa !3
  %7 = load ptr, ptr %5, align 8, !tbaa !3
  %8 = call ptr @_Py_XNewRef(ptr noundef %7)
  call void @llvm.lifetime.end.p0(i64 8, ptr %5) #6
  ret ptr %8
}

; Function Attrs: nocallback nofree nosync nounwind willreturn memory(argmem: readwrite)
declare void @llvm.lifetime.start.p0(i64 immarg, ptr captures(none)) #2

declare i32 @PyArg_Parse(ptr noundef, ptr noundef, ...) #1

declare ptr @PySys_GetObject(ptr noundef) #1

; Function Attrs: inlinehint nounwind uwtable
define internal ptr @_Py_NewRef(ptr noundef %0) #3 {
  %2 = alloca ptr, align 8
  store ptr %0, ptr %2, align 8, !tbaa !3
  %3 = load ptr, ptr %2, align 8, !tbaa !3
  call void @Py_INCREF(ptr noundef %3)
  %4 = load ptr, ptr %2, align 8, !tbaa !3
  ret ptr %4
}

; Function Attrs: nocallback nofree nosync nounwind willreturn memory(argmem: readwrite)
declare void @llvm.lifetime.end.p0(i64 immarg, ptr captures(none)) #2

; Function Attrs: alwaysinline nounwind uwtable
define internal void @Py_INCREF(ptr noundef %0) #4 {
  %2 = alloca ptr, align 8
  %3 = alloca i32, align 4
  %4 = alloca i32, align 4
  store ptr %0, ptr %2, align 8, !tbaa !3
  call void @llvm.lifetime.start.p0(i64 4, ptr %3) #6
  %5 = load ptr, ptr %2, align 8, !tbaa !3
  %6 = getelementptr inbounds nuw %struct._object, ptr %5, i32 0, i32 0
  %7 = getelementptr inbounds nuw %struct.anon, ptr %6, i32 0, i32 0
  %8 = load i32, ptr %7, align 8, !tbaa !12
  store i32 %8, ptr %3, align 4, !tbaa !10
  %9 = load i32, ptr %3, align 4, !tbaa !10
  %10 = icmp slt i32 %9, 0
  br i1 %10, label %11, label %12

11:                                               ; preds = %1
  store i32 1, ptr %4, align 4
  br label %18

12:                                               ; preds = %1
  %13 = load i32, ptr %3, align 4, !tbaa !10
  %14 = add i32 %13, 1
  %15 = load ptr, ptr %2, align 8, !tbaa !3
  %16 = getelementptr inbounds nuw %struct._object, ptr %15, i32 0, i32 0
  %17 = getelementptr inbounds nuw %struct.anon, ptr %16, i32 0, i32 0
  store i32 %14, ptr %17, align 8, !tbaa !12
  store i32 0, ptr %4, align 4
  br label %18

18:                                               ; preds = %12, %11
  call void @llvm.lifetime.end.p0(i64 4, ptr %3) #6
  %19 = load i32, ptr %4, align 4
  switch i32 %19, label %21 [
    i32 0, label %20
    i32 1, label %20
  ]

20:                                               ; preds = %18, %18
  ret void

21:                                               ; preds = %18
  unreachable
}

declare i32 @PyArg_ParseTuple(ptr noundef, ptr noundef, ...) #1

declare i32 @PySys_SetObject(ptr noundef, ptr noundef) #1

declare ptr @PyErr_Occurred() #1

; Function Attrs: noreturn nounwind
declare void @__assert_fail(ptr noundef, ptr noundef, i32 noundef, ptr noundef) #5

declare ptr @PyLong_FromLong(i64 noundef) #1

declare ptr @PySys_GetXOptions() #1

; Function Attrs: inlinehint nounwind uwtable
define internal ptr @_Py_XNewRef(ptr noundef %0) #3 {
  %2 = alloca ptr, align 8
  store ptr %0, ptr %2, align 8, !tbaa !3
  %3 = load ptr, ptr %2, align 8, !tbaa !3
  call void @Py_XINCREF(ptr noundef %3)
  %4 = load ptr, ptr %2, align 8, !tbaa !3
  ret ptr %4
}

; Function Attrs: inlinehint nounwind uwtable
define internal void @Py_XINCREF(ptr noundef %0) #3 {
  %2 = alloca ptr, align 8
  store ptr %0, ptr %2, align 8, !tbaa !3
  %3 = load ptr, ptr %2, align 8, !tbaa !3
  %4 = icmp ne ptr %3, null
  br i1 %4, label %5, label %7

5:                                                ; preds = %1
  %6 = load ptr, ptr %2, align 8, !tbaa !3
  call void @Py_INCREF(ptr noundef %6)
  br label %7

7:                                                ; preds = %5, %1
  ret void
}


!llvm.module.flags = !{!0, !1, !2}

!0 = !{i32 1, !"wchar_size", i32 4}
!1 = !{i32 8, !"PIC Level", i32 2}
!2 = !{i32 7, !"uwtable", i32 2}
!3 = !{!4, !4, i64 0}
!4 = !{!"p1 _ZTS7_object", !5, i64 0}
!5 = !{!"any pointer", !6, i64 0}
!6 = !{!"omnipotent char", !7, i64 0}
!7 = !{!"Simple C/C++ TBAA"}
!8 = !{!9, !9, i64 0}
!9 = !{!"p1 omnipotent char", !5, i64 0}
!10 = !{!11, !11, i64 0}
!11 = !{!"int", !6, i64 0}
!12 = !{!6, !6, i64 0}
